; Function Attrs: nounwind memory(readwrite, argmem: read) uwtable
define internal fastcc range(i32 0, 2) i32 @arkode_butcher_order4b(ptr noundef readonly captures(address_is_null) %0, ptr noundef readonly captures(address_is_null) %1, ptr noundef readonly captures(address_is_null) %2, ptr noundef readonly captures(address_is_null) %3, i32 noundef %4) unnamed_addr #10 {
  %6 = sext i32 %4 to i64
  %7 = tail call noalias ptr @calloc(i64 noundef %6, i64 noundef 8) #16
  %8 = tail call noalias ptr @calloc(i64 noundef %6, i64 noundef 8) #16
  %9 = icmp eq ptr %0, null
  %10 = icmp eq ptr %1, null
  %or.cond.i = or i1 %9, %10
  %11 = icmp eq ptr %7, null
  %or.cond3.i = or i1 %or.cond.i, %11
  %12 = icmp slt i32 %4, 1
  %or.cond5.i = or i1 %12, %or.cond3.i
  br i1 %or.cond5.i, label %arkode_butcher_vv.exit, label %.preheader.preheader.i

.preheader.preheader.i:                           ; preds = %5
  %wide.trip.count.i = zext nneg i32 %4 to i64
  br label %.preheader.i

.preheader.i:                                     ; preds = %.preheader.i, %.preheader.preheader.i
  %indvars.iv.i = phi i64 [ 0, %.preheader.preheader.i ], [ %indvars.iv.next.i, %.preheader.i ]
  %13 = getelementptr inbounds nuw double, ptr %0, i64 %indvars.iv.i
  %14 = load double, ptr %13, align 8, !tbaa !18
  %15 = getelementptr inbounds nuw double, ptr %1, i64 %indvars.iv.i
  %16 = load double, ptr %15, align 8, !tbaa !18
  %17 = fmul double %14, %16
  %18 = getelementptr inbounds nuw double, ptr %7, i64 %indvars.iv.i
  store double %17, ptr %18, align 8, !tbaa !18
  %indvars.iv.next.i = add nuw nsw i64 %indvars.iv.i, 1
  %exitcond.not.i = icmp eq i64 %indvars.iv.next.i, %wide.trip.count.i
  br i1 %exitcond.not.i, label %19, label %.preheader.i

arkode_butcher_vv.exit:                           ; preds = %5
  tail call void @free(ptr noundef %7) #17
  tail call void @free(ptr noundef %8) #17
  br label %arkode_butcher_dot.exit

19:                                               ; preds = %.preheader.i
  %20 = icmp eq ptr %2, null
  %21 = icmp eq ptr %3, null
  %or.cond.i21 = or i1 %20, %21
  %22 = icmp eq ptr %8, null
  %or.cond3.i22 = or i1 %or.cond.i21, %22
  br i1 %or.cond3.i22, label %arkode_butcher_mv.exit, label %.preheader.us.i

.preheader.us.i:                                  ; preds = %19, %._crit_edge.us.i
  %indvars.iv40.i = phi i64 [ %indvars.iv.next41.i, %._crit_edge.us.i ], [ 0, %19 ]
  %23 = getelementptr inbounds nuw ptr, ptr %2, i64 %indvars.iv40.i
  %24 = load ptr, ptr %23, align 8, !tbaa !12
  %25 = getelementptr inbounds nuw double, ptr %8, i64 %indvars.iv40.i
  %.promoted.us.i = load double, ptr %25, align 8, !tbaa !18
  br label %26

26:                                               ; preds = %26, %.preheader.us.i
  %indvars.iv.i24 = phi i64 [ 0, %.preheader.us.i ], [ %indvars.iv.next.i25, %26 ]
  %27 = phi double [ %.promoted.us.i, %.preheader.us.i ], [ %32, %26 ]
  %28 = getelementptr inbounds nuw double, ptr %24, i64 %indvars.iv.i24
  %29 = load double, ptr %28, align 8, !tbaa !18
  %30 = getelementptr inbounds nuw double, ptr %3, i64 %indvars.iv.i24
  %31 = load double, ptr %30, align 8, !tbaa !18
  %32 = tail call double @llvm.fmuladd.f64(double %29, double %31, double %27)
  %indvars.iv.next.i25 = add nuw nsw i64 %indvars.iv.i24, 1
  %exitcond.not.i26 = icmp eq i64 %indvars.iv.next.i25, %wide.trip.count.i
  br i1 %exitcond.not.i26, label %._crit_edge.us.i, label %26

._crit_edge.us.i:                                 ; preds = %26
  store double %32, ptr %25, align 8, !tbaa !18
  %indvars.iv.next41.i = add nuw nsw i64 %indvars.iv40.i, 1
  %exitcond44.not.i = icmp eq i64 %indvars.iv.next41.i, %wide.trip.count.i
  br i1 %exitcond44.not.i, label %.preheader, label %.preheader.us.i

arkode_butcher_mv.exit:                           ; preds = %19
  tail call void @free(ptr noundef nonnull %7) #17
  tail call void @free(ptr noundef %8) #17
  br label %arkode_butcher_dot.exit

.preheader:                                       ; preds = %._crit_edge.us.i, %.preheader
  %indvars.iv.i30 = phi i64 [ %indvars.iv.next.i31, %.preheader ], [ 0, %._crit_edge.us.i ]
  %33 = phi double [ %38, %.preheader ], [ 0.000000e+00, %._crit_edge.us.i ]
  %34 = getelementptr inbounds nuw double, ptr %7, i64 %indvars.iv.i30
  %35 = load double, ptr %34, align 8, !tbaa !18
  %36 = getelementptr inbounds nuw double, ptr %8, i64 %indvars.iv.i30
  %37 = load double, ptr %36, align 8, !tbaa !18
  %38 = tail call double @llvm.fmuladd.f64(double %35, double %37, double %33)
  %indvars.iv.next.i31 = add nuw nsw i64 %indvars.iv.i30, 1
  %exitcond.not.i32 = icmp eq i64 %indvars.iv.next.i31, %wide.trip.count.i
  br i1 %exitcond.not.i32, label %39, label %.preheader

39:                                               ; preds = %.preheader
  tail call void @free(ptr noundef nonnull %7) #17
  tail call void @free(ptr noundef nonnull %8) #17
  %40 = fadd double %38, -1.250000e-01
  %41 = tail call double @llvm.fabs.f64(double %40)
  %42 = fcmp ule double %41, 0x3E50000000000000
  %43 = zext i1 %42 to i32
  br label %arkode_butcher_dot.exit

arkode_butcher_dot.exit:                          ; preds = %39, %arkode_butcher_mv.exit, %arkode_butcher_vv.exit
  %.0 = phi i32 [ 0, %arkode_butcher_vv.exit ], [ 0, %arkode_butcher_mv.exit ], [ %43, %39 ]
  ret i32 %.0
}